target datalayout = "e-m:e-p270:32:32-p271:32:32-p272:64:64-i64:64-i128:128-f80:128-n8:16:32:64-S128"
target triple = "x86_64-pc-linux-gnu"

%struct.nstime_t = type { i64, i32 }
%struct.wtap = type { ptr, ptr, i8, i32, i32, ptr, ptr, ptr, i32, ptr, ptr, ptr, ptr, ptr, ptr, ptr, ptr, ptr, ptr, i32, i32, ptr, ptr, ptr, ptr }
%struct.rtpdump_priv_s = type { %struct.Buffer, %struct.nstime_t }
%struct.Buffer = type { ptr, i64, i64, i64 }
%struct.wtap_rec = type { i32, i32, i32, %struct.nstime_t, i32, %struct.nstime_t, i8, %union.anon, ptr, i8, %struct.Buffer, %struct.Buffer }
%union.anon = type { %struct.wtap_packet_header }
%struct.wtap_packet_header = type { i32, i32, i32, i32, %union.wtap_pseudo_header }
%union.wtap_pseudo_header = type { %struct.erf_mc_phdr }
%struct.erf_mc_phdr = type { %struct.erf_phdr, [16 x %struct.erf_ehdr], %union.anon.1 }
%struct.erf_phdr = type { i64, i8, i8, i16, i16, i16 }
%struct.erf_ehdr = type { i64 }
%union.anon.1 = type { i32 }

@.str.5 = private unnamed_addr constant [5 x i8] c"rtcp\00", align 1
@.str.6 = private unnamed_addr constant [4 x i8] c"rtp\00", align 1

; Function Attrs: inlinehint nounwind null_pointer_is_valid sspstrong uwtable
define internal i64 @ws_buffer_length(ptr noundef %0) #10 {
  %2 = alloca ptr, align 8
  store ptr %0, ptr %2, align 8
  %3 = load ptr, ptr %2, align 8
  %4 = getelementptr inbounds nuw %struct.Buffer, ptr %3, i32 0, i32 3
  %5 = load i64, ptr %4, align 8
  %6 = load ptr, ptr %2, align 8
  %7 = getelementptr inbounds nuw %struct.Buffer, ptr %6, i32 0, i32 2
  %8 = load i64, ptr %7, align 8
  %9 = sub i64 %5, %8
  ret i64 %9
}

; Function Attrs: inlinehint nounwind null_pointer_is_valid sspstrong uwtable
define internal ptr @ws_buffer_start_ptr(ptr noundef %0) #10 {
  %2 = alloca ptr, align 8
  store ptr %0, ptr %2, align 8
  %3 = load ptr, ptr %2, align 8
  %4 = getelementptr inbounds nuw %struct.Buffer, ptr %3, i32 0, i32 0
  %5 = load ptr, ptr %4, align 8
  %6 = load ptr, ptr %2, align 8
  %7 = getelementptr inbounds nuw %struct.Buffer, ptr %6, i32 0, i32 2
  %8 = load i64, ptr %7, align 8
  %9 = getelementptr i8, ptr %5, i64 %8
  ret ptr %9
}

; Function Attrs: inlinehint null_pointer_is_valid sspstrong uwtable
define internal void @ws_buffer_append_buffer(ptr noundef %0, ptr noundef %1) #5 {
  %3 = alloca ptr, align 8
  %4 = alloca ptr, align 8
  store ptr %0, ptr %3, align 8
  store ptr %1, ptr %4, align 8
  %5 = load ptr, ptr %3, align 8
  %6 = load ptr, ptr %4, align 8
  %7 = call ptr @ws_buffer_start_ptr(ptr noundef %6)
  %8 = load ptr, ptr %4, align 8
  %9 = call i64 @ws_buffer_length(ptr noundef %8)
  call void @ws_buffer_append(ptr noundef %5, ptr noundef %7, i64 noundef %9)
  ret void
}

; Function Attrs: null_pointer_is_valid sspstrong uwtable
define internal zeroext i1 @rtpdump_read_packet(ptr noundef %0, ptr noundef %1, ptr noundef %2, ptr noundef %3, ptr noundef %4) #0 {
  %6 = alloca i1, align 1
  %7 = alloca ptr, align 8
  %8 = alloca ptr, align 8
  %9 = alloca ptr, align 8
  %10 = alloca ptr, align 8
  %11 = alloca ptr, align 8
  %12 = alloca ptr, align 8
  %13 = alloca %struct.nstime_t, align 8
  %14 = alloca i32, align 4
  %15 = alloca i8, align 1
  %16 = alloca i16, align 2
  %17 = alloca i16, align 2
  %18 = alloca i32, align 4
  %19 = alloca i32, align 4
  %20 = alloca i32, align 4
  %21 = alloca i32, align 4
  %22 = alloca i32, align 4
  store ptr %0, ptr %7, align 8
  store ptr %1, ptr %8, align 8
  store ptr %2, ptr %9, align 8
  store ptr %3, ptr %10, align 8
  store ptr %4, ptr %11, align 8
  call void @llvm.lifetime.start.p0(i64 8, ptr %12) #11
  %23 = load ptr, ptr %7, align 8
  %24 = getelementptr inbounds nuw %struct.wtap, ptr %23, i32 0, i32 13
  %25 = load ptr, ptr %24, align 8
  store ptr %25, ptr %12, align 8
  call void @llvm.lifetime.start.p0(i64 16, ptr %13) #11
  call void @llvm.memset.p0.i64(ptr align 8 %13, i8 0, i64 16, i1 false)
  call void @llvm.lifetime.start.p0(i64 4, ptr %14) #11
  store i32 0, ptr %14, align 4
  call void @llvm.lifetime.start.p0(i64 1, ptr %15) #11
  store i8 8, ptr %15, align 1
  call void @llvm.lifetime.start.p0(i64 2, ptr %16) #11
  call void @llvm.lifetime.start.p0(i64 2, ptr %17) #11
  call void @llvm.lifetime.start.p0(i64 4, ptr %18) #11
  %26 = load ptr, ptr %8, align 8
  %27 = load ptr, ptr %10, align 8
  %28 = load ptr, ptr %11, align 8
  %29 = call zeroext i1 @wtap_read_bytes_or_eof(ptr noundef %26, ptr noundef %16, i32 noundef 2, ptr noundef %27, ptr noundef %28)
  br i1 %29, label %31, label %30

30:                                               ; preds = %5
  store i1 false, ptr %6, align 1
  store i32 1, ptr %19, align 4
  br label %155

31:                                               ; preds = %5
  %32 = load i16, ptr %16, align 2
  %33 = zext i16 %32 to i32
  %34 = ashr i32 %33, 8
  %35 = trunc i32 %34 to i16
  %36 = zext i16 %35 to i32
  %37 = load i16, ptr %16, align 2
  %38 = zext i16 %37 to i32
  %39 = shl i32 %38, 8
  %40 = trunc i32 %39 to i16
  %41 = zext i16 %40 to i32
  %42 = or i32 %36, %41
  %43 = trunc i32 %42 to i16
  store i16 %43, ptr %16, align 2
  %44 = load ptr, ptr %8, align 8
  %45 = load ptr, ptr %10, align 8
  %46 = load ptr, ptr %11, align 8
  %47 = call zeroext i1 @wtap_read_bytes(ptr noundef %44, ptr noundef %17, i32 noundef 2, ptr noundef %45, ptr noundef %46)
  br i1 %47, label %49, label %48

48:                                               ; preds = %31
  store i1 false, ptr %6, align 1
  store i32 1, ptr %19, align 4
  br label %155

49:                                               ; preds = %31
  %50 = load i16, ptr %17, align 2
  %51 = zext i16 %50 to i32
  %52 = ashr i32 %51, 8
  %53 = trunc i32 %52 to i16
  %54 = zext i16 %53 to i32
  %55 = load i16, ptr %17, align 2
  %56 = zext i16 %55 to i32
  %57 = shl i32 %56, 8
  %58 = trunc i32 %57 to i16
  %59 = zext i16 %58 to i32
  %60 = or i32 %54, %59
  %61 = trunc i32 %60 to i16
  store i16 %61, ptr %17, align 2
  %62 = load ptr, ptr %8, align 8
  %63 = load ptr, ptr %10, align 8
  %64 = load ptr, ptr %11, align 8
  %65 = call zeroext i1 @wtap_read_bytes(ptr noundef %62, ptr noundef %18, i32 noundef 4, ptr noundef %63, ptr noundef %64)
  br i1 %65, label %67, label %66

66:                                               ; preds = %49
  store i1 false, ptr %6, align 1
  store i32 1, ptr %19, align 4
  br label %155

67:                                               ; preds = %49
  call void @llvm.lifetime.start.p0(i64 4, ptr %20) #11
  call void @llvm.lifetime.start.p0(i64 4, ptr %21) #11
  %68 = load i32, ptr %18, align 4
  store i32 %68, ptr %21, align 4
  %69 = load i32, ptr %21, align 4
  %70 = call i1 @llvm.is.constant.i32(i32 %69)
  br i1 %70, label %71, label %87

71:                                               ; preds = %67
  %72 = load i32, ptr %21, align 4
  %73 = and i32 %72, 255
  %74 = shl i32 %73, 24
  %75 = load i32, ptr %21, align 4
  %76 = and i32 %75, 65280
  %77 = shl i32 %76, 8
  %78 = or i32 %74, %77
  %79 = load i32, ptr %21, align 4
  %80 = and i32 %79, 16711680
  %81 = lshr i32 %80, 8
  %82 = or i32 %78, %81
  %83 = load i32, ptr %21, align 4
  %84 = and i32 %83, -16777216
  %85 = lshr i32 %84, 24
  %86 = or i32 %82, %85
  store i32 %86, ptr %20, align 4
  br label %90

87:                                               ; preds = %67
  %88 = load i32, ptr %21, align 4
  %89 = call i32 asm "bswapl $0", "=r,0,~{dirflag},~{fpsr},~{flags}"(i32 %88) #13, !srcloc !12
  store i32 %89, ptr %20, align 4
  br label %90

90:                                               ; preds = %87, %71
  %91 = load i32, ptr %20, align 4
  store i32 %91, ptr %22, align 4
  call void @llvm.lifetime.end.p0(i64 4, ptr %21) #11
  call void @llvm.lifetime.end.p0(i64 4, ptr %20) #11
  %92 = load i32, ptr %22, align 4
  store i32 %92, ptr %18, align 4
  %93 = load i16, ptr %16, align 2
  %94 = zext i16 %93 to i32
  %95 = sub i32 %94, 8
  %96 = trunc i32 %95 to i16
  store i16 %96, ptr %16, align 2
  %97 = load ptr, ptr %9, align 8
  %98 = getelementptr inbounds nuw %struct.wtap_rec, ptr %97, i32 0, i32 11
  %99 = load ptr, ptr %12, align 8
  %100 = getelementptr inbounds nuw %struct.rtpdump_priv_s, ptr %99, i32 0, i32 0
  call void @ws_buffer_append_buffer(ptr noundef %98, ptr noundef %100)
  %101 = load i16, ptr %17, align 2
  %102 = zext i16 %101 to i32
  %103 = icmp eq i32 %102, 0
  br i1 %103, label %104, label %108

104:                                              ; preds = %90
  %105 = load i16, ptr %16, align 2
  store i16 %105, ptr %17, align 2
  %106 = load ptr, ptr %9, align 8
  %107 = getelementptr inbounds nuw %struct.wtap_rec, ptr %106, i32 0, i32 11
  call void @wtap_buffer_append_epdu_string(ptr noundef %107, i16 noundef zeroext 12, ptr noundef @.str.5)
  br label %111

108:                                              ; preds = %90
  %109 = load ptr, ptr %9, align 8
  %110 = getelementptr inbounds nuw %struct.wtap_rec, ptr %109, i32 0, i32 11
  call void @wtap_buffer_append_epdu_string(ptr noundef %110, i16 noundef zeroext 12, ptr noundef @.str.6)
  br label %111

111:                                              ; preds = %108, %104
  %112 = load ptr, ptr %9, align 8
  %113 = getelementptr inbounds nuw %struct.wtap_rec, ptr %112, i32 0, i32 11
  %114 = call i32 @wtap_buffer_append_epdu_end(ptr noundef %113)
  store i32 %114, ptr %14, align 4
  %115 = load i32, ptr %18, align 4
  %116 = udiv i32 %115, 1000
  %117 = zext i32 %116 to i64
  %118 = getelementptr inbounds nuw %struct.nstime_t, ptr %13, i32 0, i32 0
  store i64 %117, ptr %118, align 8
  %119 = load i32, ptr %18, align 4
  %120 = urem i32 %119, 1000
  %121 = mul i32 %120, 1000000
  %122 = getelementptr inbounds nuw %struct.nstime_t, ptr %13, i32 0, i32 1
  store i32 %121, ptr %122, align 8
  %123 = load ptr, ptr %9, align 8
  %124 = getelementptr inbounds nuw %struct.wtap_rec, ptr %123, i32 0, i32 3
  %125 = load ptr, ptr %12, align 8
  %126 = getelementptr inbounds nuw %struct.rtpdump_priv_s, ptr %125, i32 0, i32 1
  call void @nstime_sum(ptr noundef %124, ptr noundef %126, ptr noundef %13)
  %127 = load ptr, ptr %9, align 8
  %128 = getelementptr inbounds nuw %struct.wtap_rec, ptr %127, i32 0, i32 1
  %129 = load i32, ptr %128, align 4
  %130 = or i32 %129, 3
  store i32 %130, ptr %128, align 4
  %131 = load i32, ptr %14, align 4
  %132 = load i16, ptr %17, align 2
  %133 = zext i16 %132 to i32
  %134 = add i32 %131, %133
  %135 = load ptr, ptr %9, align 8
  %136 = getelementptr inbounds nuw %struct.wtap_rec, ptr %135, i32 0, i32 7
  %137 = getelementptr inbounds nuw %struct.wtap_packet_header, ptr %136, i32 0, i32 0
  store i32 %134, ptr %137, align 8
  %138 = load i32, ptr %14, align 4
  %139 = load i16, ptr %16, align 2
  %140 = zext i16 %139 to i32
  %141 = add i32 %138, %140
  %142 = load ptr, ptr %9, align 8
  %143 = getelementptr inbounds nuw %struct.wtap_rec, ptr %142, i32 0, i32 7
  %144 = getelementptr inbounds nuw %struct.wtap_packet_header, ptr %143, i32 0, i32 1
  store i32 %141, ptr %144, align 4
  %145 = load ptr, ptr %9, align 8
  %146 = getelementptr inbounds nuw %struct.wtap_rec, ptr %145, i32 0, i32 0
  store i32 0, ptr %146, align 8
  %147 = load ptr, ptr %8, align 8
  %148 = load ptr, ptr %9, align 8
  %149 = getelementptr inbounds nuw %struct.wtap_rec, ptr %148, i32 0, i32 11
  %150 = load i16, ptr %16, align 2
  %151 = zext i16 %150 to i32
  %152 = load ptr, ptr %10, align 8
  %153 = load ptr, ptr %11, align 8
  %154 = call zeroext i1 @wtap_read_bytes_buffer(ptr noundef %147, ptr noundef %149, i32 noundef %151, ptr noundef %152, ptr noundef %153)
  store i1 %154, ptr %6, align 1
  store i32 1, ptr %19, align 4
  br label %155

155:                                              ; preds = %111, %66, %48, %30
  call void @llvm.lifetime.end.p0(i64 4, ptr %18) #11
  call void @llvm.lifetime.end.p0(i64 2, ptr %17) #11
  call void @llvm.lifetime.end.p0(i64 2, ptr %16) #11
  call void @llvm.lifetime.end.p0(i64 1, ptr %15) #11
  call void @llvm.lifetime.end.p0(i64 4, ptr %14) #11
  call void @llvm.lifetime.end.p0(i64 16, ptr %13) #11
  call void @llvm.lifetime.end.p0(i64 8, ptr %12) #11
  %156 = load i1, ptr %6, align 1
  ret i1 %156
}