; Function Attrs: null_pointer_is_valid sspstrong uwtable
define internal fastcc zeroext i1 @rtpdump_read_packet(ptr %.96.val, ptr noundef %0, ptr noundef %1, ptr noundef %2, ptr noundef %3) unnamed_addr #0 {
  %5 = alloca %struct.nstime_t, align 8
  %6 = alloca i16, align 2
  %7 = alloca i16, align 2
  %8 = alloca i32, align 4
  call void @llvm.lifetime.start.p0(i64 16, ptr nonnull %5) #8
  %9 = getelementptr inbounds nuw i8, ptr %5, i64 8
  store i64 0, ptr %9, align 8
  call void @llvm.lifetime.start.p0(i64 2, ptr nonnull %6) #8
  call void @llvm.lifetime.start.p0(i64 2, ptr nonnull %7) #8
  call void @llvm.lifetime.start.p0(i64 4, ptr nonnull %8) #8
  %10 = call zeroext i1 @wtap_read_bytes_or_eof(ptr noundef %0, ptr noundef nonnull %6, i32 noundef 2, ptr noundef %2, ptr noundef %3)
  br i1 %10, label %11, label %53

11:                                               ; preds = %4
  %12 = load i16, ptr %6, align 2
  %rev = call i16 @llvm.bswap.i16(i16 %12)
  store i16 %rev, ptr %6, align 2
  %13 = call zeroext i1 @wtap_read_bytes(ptr noundef %0, ptr noundef nonnull %7, i32 noundef 2, ptr noundef %2, ptr noundef %3)
  br i1 %13, label %14, label %53

14:                                               ; preds = %11
  %15 = load i16, ptr %7, align 2
  %rev36 = call i16 @llvm.bswap.i16(i16 %15)
  store i16 %rev36, ptr %7, align 2
  %16 = call zeroext i1 @wtap_read_bytes(ptr noundef %0, ptr noundef nonnull %8, i32 noundef 4, ptr noundef %2, ptr noundef %3)
  br i1 %16, label %17, label %53

17:                                               ; preds = %14
  %18 = load i32, ptr %8, align 4
  %19 = call i32 asm "bswapl $0", "=r,0,~{dirflag},~{fpsr},~{flags}"(i32 %18) #9, !srcloc !10
  store i32 %19, ptr %8, align 4
  %20 = load i16, ptr %6, align 2
  %21 = add i16 %20, -8
  store i16 %21, ptr %6, align 2
  %22 = getelementptr inbounds nuw i8, ptr %1, i64 280
  %.val.i = load ptr, ptr %.96.val, align 8
  %23 = getelementptr i8, ptr %.96.val, i64 16
  %.val3.i = load i64, ptr %23, align 8
  %24 = getelementptr i8, ptr %.val.i, i64 %.val3.i
  %25 = getelementptr i8, ptr %.96.val, i64 24
  %.val5.i = load i64, ptr %25, align 8
  %26 = sub i64 %.val5.i, %.val3.i
  call void @ws_buffer_append(ptr noundef nonnull %22, ptr noundef %24, i64 noundef %26)
  %27 = load i16, ptr %7, align 2
  %28 = icmp eq i16 %27, 0
  br i1 %28, label %29, label %31

29:                                               ; preds = %17
  %30 = load i16, ptr %6, align 2
  store i16 %30, ptr %7, align 2
  br label %31

31:                                               ; preds = %17, %29
  %.str.6.sink = phi ptr [ @.str.5, %29 ], [ @.str.6, %17 ]
  call void @wtap_buffer_append_epdu_string(ptr noundef nonnull %22, i16 noundef zeroext 12, ptr noundef nonnull %.str.6.sink)
  %32 = call i32 @wtap_buffer_append_epdu_end(ptr noundef nonnull %22)
  %33 = load i32, ptr %8, align 4
  %34 = udiv i32 %33, 1000
  %35 = zext nneg i32 %34 to i64
  store i64 %35, ptr %5, align 8
  %36 = urem i32 %33, 1000
  %37 = mul nuw nsw i32 %36, 1000000
  %38 = getelementptr inbounds nuw i8, ptr %5, i64 8
  store i32 %37, ptr %38, align 8
  %39 = getelementptr inbounds nuw i8, ptr %1, i64 16
  %40 = getelementptr inbounds nuw i8, ptr %.96.val, i64 32
  call void @nstime_sum(ptr noundef nonnull %39, ptr noundef nonnull %40, ptr noundef nonnull %5)
  %41 = getelementptr inbounds nuw i8, ptr %1, i64 4
  %42 = load i32, ptr %41, align 4
  %43 = or i32 %42, 3
  store i32 %43, ptr %41, align 4
  %44 = load i16, ptr %7, align 2
  %45 = zext i16 %44 to i32
  %46 = add i32 %32, %45
  %47 = getelementptr inbounds nuw i8, ptr %1, i64 64
  store i32 %46, ptr %47, align 8
  %48 = load i16, ptr %6, align 2
  %49 = zext i16 %48 to i32
  %50 = add i32 %32, %49
  %51 = getelementptr inbounds nuw i8, ptr %1, i64 68
  store i32 %50, ptr %51, align 4
  store i32 0, ptr %1, align 8
  %52 = call zeroext i1 @wtap_read_bytes_buffer(ptr noundef %0, ptr noundef nonnull %22, i32 noundef %49, ptr noundef %2, ptr noundef %3)
  br label %53

53:                                               ; preds = %14, %11, %4, %31
  %.0 = phi i1 [ %52, %31 ], [ false, %4 ], [ false, %11 ], [ false, %14 ]
  call void @llvm.lifetime.end.p0(i64 4, ptr nonnull %8) #8
  call void @llvm.lifetime.end.p0(i64 2, ptr nonnull %7) #8
  call void @llvm.lifetime.end.p0(i64 2, ptr nonnull %6) #8
  call void @llvm.lifetime.end.p0(i64 16, ptr nonnull %5) #8
  ret i1 %.0
}